target datalayout = "e-m:e-p270:32:32-p271:32:32-p272:64:64-i64:64-i128:128-f80:128-n8:16:32:64-S128"
target triple = "x86_64-unknown-linux-gnu"

%struct.ecc_point = type { [1 x %struct.sp_int], [1 x %struct.sp_int], [1 x %struct.sp_int] }
%struct.sp_int = type { i32, i32, [129 x i64] }

; Function Attrs: nounwind uwtable
define i32 @ecc_projective_add_point(ptr noundef %P, ptr noundef %Q, ptr noundef %R, ptr noundef %a, ptr noundef %modulus, i64 noundef %mp) #0 {
entry:
  %retval = alloca i32, align 4
  %P.addr = alloca ptr, align 8
  %Q.addr = alloca ptr, align 8
  %R.addr = alloca ptr, align 8
  %a.addr = alloca ptr, align 8
  %modulus.addr = alloca ptr, align 8
  %mp.addr = alloca i64, align 8
  store ptr %P, ptr %P.addr, align 8
  store ptr %Q, ptr %Q.addr, align 8
  store ptr %R, ptr %R.addr, align 8
  store ptr %a, ptr %a.addr, align 8
  store ptr %modulus, ptr %modulus.addr, align 8
  store i64 %mp, ptr %mp.addr, align 8
  %0 = load ptr, ptr %P.addr, align 8
  %cmp = icmp eq ptr %0, null
  br i1 %cmp, label %if.then, label %lor.lhs.false

lor.lhs.false:                                    ; preds = %entry
  %1 = load ptr, ptr %Q.addr, align 8
  %cmp1 = icmp eq ptr %1, null
  br i1 %cmp1, label %if.then, label %lor.lhs.false2

lor.lhs.false2:                                   ; preds = %lor.lhs.false
  %2 = load ptr, ptr %R.addr, align 8
  %cmp3 = icmp eq ptr %2, null
  br i1 %cmp3, label %if.then, label %lor.lhs.false4

lor.lhs.false4:                                   ; preds = %lor.lhs.false2
  %3 = load ptr, ptr %modulus.addr, align 8
  %cmp5 = icmp eq ptr %3, null
  br i1 %cmp5, label %if.then, label %if.end

if.then:                                          ; preds = %lor.lhs.false4, %lor.lhs.false2, %lor.lhs.false, %entry
  store i32 -170, ptr %retval, align 4
  br label %return

if.end:                                           ; preds = %lor.lhs.false4
  %4 = load ptr, ptr %P.addr, align 8
  %x = getelementptr inbounds %struct.ecc_point, ptr %4, i32 0, i32 0
  %arraydecay = getelementptr inbounds [1 x %struct.sp_int], ptr %x, i64 0, i64 0
  %5 = load ptr, ptr %modulus.addr, align 8
  %call = call i32 @sp_cmp(ptr noundef %arraydecay, ptr noundef %5)
  %cmp6 = icmp ne i32 %call, -1
  br i1 %cmp6, label %if.then30, label %lor.lhs.false7

lor.lhs.false7:                                   ; preds = %if.end
  %6 = load ptr, ptr %P.addr, align 8
  %y = getelementptr inbounds %struct.ecc_point, ptr %6, i32 0, i32 1
  %arraydecay8 = getelementptr inbounds [1 x %struct.sp_int], ptr %y, i64 0, i64 0
  %7 = load ptr, ptr %modulus.addr, align 8
  %call9 = call i32 @sp_cmp(ptr noundef %arraydecay8, ptr noundef %7)
  %cmp10 = icmp ne i32 %call9, -1
  br i1 %cmp10, label %if.then30, label %lor.lhs.false11

lor.lhs.false11:                                  ; preds = %lor.lhs.false7
  %8 = load ptr, ptr %P.addr, align 8
  %z = getelementptr inbounds %struct.ecc_point, ptr %8, i32 0, i32 2
  %arraydecay12 = getelementptr inbounds [1 x %struct.sp_int], ptr %z, i64 0, i64 0
  %9 = load ptr, ptr %modulus.addr, align 8
  %call13 = call i32 @sp_cmp(ptr noundef %arraydecay12, ptr noundef %9)
  %cmp14 = icmp ne i32 %call13, -1
  br i1 %cmp14, label %if.then30, label %lor.lhs.false15

lor.lhs.false15:                                  ; preds = %lor.lhs.false11
  %10 = load ptr, ptr %Q.addr, align 8
  %x16 = getelementptr inbounds %struct.ecc_point, ptr %10, i32 0, i32 0
  %arraydecay17 = getelementptr inbounds [1 x %struct.sp_int], ptr %x16, i64 0, i64 0
  %11 = load ptr, ptr %modulus.addr, align 8
  %call18 = call i32 @sp_cmp(ptr noundef %arraydecay17, ptr noundef %11)
  %cmp19 = icmp ne i32 %call18, -1
  br i1 %cmp19, label %if.then30, label %lor.lhs.false20

lor.lhs.false20:                                  ; preds = %lor.lhs.false15
  %12 = load ptr, ptr %Q.addr, align 8
  %y21 = getelementptr inbounds %struct.ecc_point, ptr %12, i32 0, i32 1
  %arraydecay22 = getelementptr inbounds [1 x %struct.sp_int], ptr %y21, i64 0, i64 0
  %13 = load ptr, ptr %modulus.addr, align 8
  %call23 = call i32 @sp_cmp(ptr noundef %arraydecay22, ptr noundef %13)
  %cmp24 = icmp ne i32 %call23, -1
  br i1 %cmp24, label %if.then30, label %lor.lhs.false25

lor.lhs.false25:                                  ; preds = %lor.lhs.false20
  %14 = load ptr, ptr %Q.addr, align 8
  %z26 = getelementptr inbounds %struct.ecc_point, ptr %14, i32 0, i32 2
  %arraydecay27 = getelementptr inbounds [1 x %struct.sp_int], ptr %z26, i64 0, i64 0
  %15 = load ptr, ptr %modulus.addr, align 8
  %call28 = call i32 @sp_cmp(ptr noundef %arraydecay27, ptr noundef %15)
  %cmp29 = icmp ne i32 %call28, -1
  br i1 %cmp29, label %if.then30, label %if.end31

if.then30:                                        ; preds = %lor.lhs.false25, %lor.lhs.false20, %lor.lhs.false15, %lor.lhs.false11, %lor.lhs.false7, %if.end
  store i32 -217, ptr %retval, align 4
  br label %return

if.end31:                                         ; preds = %lor.lhs.false25
  %16 = load ptr, ptr %P.addr, align 8
  %17 = load ptr, ptr %Q.addr, align 8
  %18 = load ptr, ptr %R.addr, align 8
  %19 = load ptr, ptr %a.addr, align 8
  %20 = load ptr, ptr %modulus.addr, align 8
  %21 = load i64, ptr %mp.addr, align 8
  %call32 = call i32 @_ecc_projective_add_point(ptr noundef %16, ptr noundef %17, ptr noundef %18, ptr noundef %19, ptr noundef %20, i64 noundef %21)
  store i32 %call32, ptr %retval, align 4
  br label %return

return:                                           ; preds = %if.end31, %if.then30, %if.then
  %22 = load i32, ptr %retval, align 4
  ret i32 %22
}