; Function Attrs: nounwind uwtable
define i32 @ecc_projective_add_point(ptr noundef %P, ptr noundef %Q, ptr noundef %R, ptr noundef readnone captures(none) %a, ptr noundef %modulus, i64 noundef %mp) local_unnamed_addr #2 {
entry:
  %cmp = icmp eq ptr %P, null
  %cmp1 = icmp eq ptr %Q, null
  %or.cond = or i1 %cmp, %cmp1
  %cmp3 = icmp eq ptr %R, null
  %or.cond1 = or i1 %or.cond, %cmp3
  %cmp5 = icmp eq ptr %modulus, null
  %or.cond2 = or i1 %or.cond1, %cmp5
  br i1 %or.cond2, label %return, label %if.end

if.end:                                           ; preds = %entry
  %call = tail call i32 @sp_cmp(ptr noundef nonnull %P, ptr noundef nonnull %modulus) #19
  %cmp6.not = icmp eq i32 %call, -1
  br i1 %cmp6.not, label %lor.lhs.false7, label %return

lor.lhs.false7:                                   ; preds = %if.end
  %y = getelementptr inbounds nuw i8, ptr %P, i64 1040
  %call9 = tail call i32 @sp_cmp(ptr noundef nonnull %y, ptr noundef nonnull %modulus) #19
  %cmp10.not = icmp eq i32 %call9, -1
  br i1 %cmp10.not, label %lor.lhs.false11, label %return

lor.lhs.false11:                                  ; preds = %lor.lhs.false7
  %z = getelementptr inbounds nuw i8, ptr %P, i64 2080
  %call13 = tail call i32 @sp_cmp(ptr noundef nonnull %z, ptr noundef nonnull %modulus) #19
  %cmp14.not = icmp eq i32 %call13, -1
  br i1 %cmp14.not, label %lor.lhs.false15, label %return

lor.lhs.false15:                                  ; preds = %lor.lhs.false11
  %call18 = tail call i32 @sp_cmp(ptr noundef nonnull %Q, ptr noundef nonnull %modulus) #19
  %cmp19.not = icmp eq i32 %call18, -1
  br i1 %cmp19.not, label %lor.lhs.false20, label %return

lor.lhs.false20:                                  ; preds = %lor.lhs.false15
  %y21 = getelementptr inbounds nuw i8, ptr %Q, i64 1040
  %call23 = tail call i32 @sp_cmp(ptr noundef nonnull %y21, ptr noundef nonnull %modulus) #19
  %cmp24.not = icmp eq i32 %call23, -1
  br i1 %cmp24.not, label %lor.lhs.false25, label %return

lor.lhs.false25:                                  ; preds = %lor.lhs.false20
  %z26 = getelementptr inbounds nuw i8, ptr %Q, i64 2080
  %call28 = tail call i32 @sp_cmp(ptr noundef nonnull %z26, ptr noundef nonnull %modulus) #19
  %cmp29.not = icmp eq i32 %call28, -1
  br i1 %cmp29.not, label %if.end31, label %return

if.end31:                                         ; preds = %lor.lhs.false25
  %call32 = tail call fastcc i32 @_ecc_projective_add_point(ptr noundef nonnull %P, ptr noundef nonnull %Q, ptr noundef nonnull %R, ptr noundef nonnull %modulus, i64 noundef %mp)
  br label %return

return:                                           ; preds = %if.end, %lor.lhs.false7, %lor.lhs.false11, %lor.lhs.false15, %lor.lhs.false20, %lor.lhs.false25, %entry, %if.end31
  %retval.0 = phi i32 [ %call32, %if.end31 ], [ -170, %entry ], [ -217, %lor.lhs.false25 ], [ -217, %lor.lhs.false20 ], [ -217, %lor.lhs.false15 ], [ -217, %lor.lhs.false11 ], [ -217, %lor.lhs.false7 ], [ -217, %if.end ]
  ret i32 %retval.0
}